target datalayout = "e-m:e-p270:32:32-p271:32:32-p272:64:64-i64:64-i128:128-f80:128-n8:16:32:64-S128"
target triple = "x86_64-pc-linux-gnu"

%struct._zval_struct = type { %union._zend_value, %union.anon, %union.anon.2 }
%union._zend_value = type { i64 }
%union.anon = type { i32 }
%union.anon.2 = type { i32 }
%struct._phar_entry_info = type { i32, i32, i32, i32, i32, i32, %struct._phar_metadata_tracker, i32, ptr, i32, i64, i64, i64, ptr, ptr, i32, ptr, ptr, ptr, i8, i32, i16, i16 }
%struct._phar_metadata_tracker = type { %struct._zval_struct, ptr }

@.str.25 = private unnamed_addr constant [8 x i8] c"unknown\00", align 1
@.str.26 = private unnamed_addr constant [13 x i8] c"zlib.inflate\00", align 1
@.str.27 = private unnamed_addr constant [17 x i8] c"bzip2.decompress\00", align 1

; Function Attrs: nounwind uwtable
define hidden ptr @phar_decompress_filter(ptr noundef %0, i32 noundef %1) #0 {
  %3 = alloca ptr, align 8
  %4 = alloca ptr, align 8
  %5 = alloca i32, align 4
  %6 = alloca i32, align 4
  store ptr %0, ptr %4, align 8
  store i32 %1, ptr %5, align 4
  %7 = load ptr, ptr %4, align 8
  %8 = getelementptr inbounds %struct._phar_entry_info, ptr %7, i32 0, i32 22
  %9 = load i16, ptr %8, align 2
  %10 = lshr i16 %9, 1
  %11 = and i16 %10, 1
  %12 = zext i16 %11 to i32
  %13 = icmp ne i32 %12, 0
  br i1 %13, label %14, label %18

14:                                               ; preds = %2
  %15 = load ptr, ptr %4, align 8
  %16 = getelementptr inbounds %struct._phar_entry_info, ptr %15, i32 0, i32 5
  %17 = load i32, ptr %16, align 4
  store i32 %17, ptr %6, align 4
  br label %22

18:                                               ; preds = %2
  %19 = load ptr, ptr %4, align 8
  %20 = getelementptr inbounds %struct._phar_entry_info, ptr %19, i32 0, i32 4
  %21 = load i32, ptr %20, align 8
  store i32 %21, ptr %6, align 4
  br label %22

22:                                               ; preds = %18, %14
  %23 = load i32, ptr %6, align 4
  %24 = and i32 %23, 61440
  switch i32 %24, label %27 [
    i32 4096, label %25
    i32 8192, label %26
  ]

25:                                               ; preds = %22
  store ptr @.str.26, ptr %3, align 8
  br label %31

26:                                               ; preds = %22
  store ptr @.str.27, ptr %3, align 8
  br label %31

27:                                               ; preds = %22
  %28 = load i32, ptr %5, align 4
  %29 = icmp ne i32 %28, 0
  %30 = select i1 %29, ptr @.str.25, ptr null
  store ptr %30, ptr %3, align 8
  br label %31

31:                                               ; preds = %27, %26, %25
  %32 = load ptr, ptr %3, align 8
  ret ptr %32
}