; Function Attrs: mustprogress nofree norecurse nosync nounwind willreturn memory(argmem: read) uwtable
define hidden noundef ptr @phar_decompress_filter(ptr nocapture noundef readonly %0, i32 noundef %1) local_unnamed_addr #6 {
  %3 = getelementptr inbounds i8, ptr %0, i64 154
  %4 = load i16, ptr %3, align 2
  %5 = and i16 %4, 2
  %.not = icmp eq i16 %5, 0
  %.0.in.v = select i1 %.not, i64 16, i64 20
  %.0.in = getelementptr inbounds i8, ptr %0, i64 %.0.in.v
  %.0 = load i32, ptr %.0.in, align 4
  %6 = trunc i32 %.0 to i16
  %trunc = and i16 %6, -4096
  switch i16 %trunc, label %8 [
    i16 4096, label %10
    i16 8192, label %7
  ]

7:                                                ; preds = %2
  br label %10

8:                                                ; preds = %2
  %.not6 = icmp eq i32 %1, 0
  %9 = select i1 %.not6, ptr null, ptr @.str.25
  br label %10

10:                                               ; preds = %2, %8, %7
  %.05 = phi ptr [ %9, %8 ], [ @.str.27, %7 ], [ @.str.26, %2 ]
  ret ptr %.05
}